(lp1
(lp2
F0.99893795554376186
aF0.99933456712569069
aF0.99949673966791963
aF0.99952731872755152
aF0.99955447550818244
aF0.99957842446703382
aF0.9995993980231076
aF0.99961759009751305
aF0.99963316205948527
aF0.99964623370887395
aF0.99965686979727197
aF0.99966506506837105
aF0.99967069239228246
aF0.99967349480520806
aF0.99967298917505232
aF0.9996683838399878
aF0.99965843883387662
aF0.99964127289726934
aF0.99961407014574821
aF0.99957270774591467
aF0.99951119690451884
aF0.99942093091776685
aF0.99928965167519035
aF0.99910004747110792
aF0.99882786847544791
aF0.99843941937409797
aF0.99788826014085108
aF0.99711091920700712
aF0.99602140539402628
aF0.9945043083059808
aF0.99240632237378879
aF0.98952615065221394
aF0.98560299032553844
aF0.98030424042983311
aF0.97321376615477306
aF0.96382324114924933
aF0.95153009406299949
aF0.93564796221862689
aF0.91543602494093279
aF0.8901544040052809
aF0.8591500109446838
aF0.82197067504126287
aF0.77849412470640245
aF0.72904482220461531
aF0.67446163089655442
aF0.61608150348784074
aF0.55562330016578376
aF0.4949882627053564
aF0.43602429936333703
aF0.38031378103243069
aF0.32903251927120747
aF0.28289959441956131
aF0.2422051854723149
aF0.20689180394482604
aF0.17665424974484123
aF0.15103671159940468
aF0.12951239279492632
aF0.11154147018110457
aF0.09660869443136387
aF0.084244633098928226
aF0.074035145455836171
aF0.065623149911819473
aF0.058705817950315431
aF0.053029281422480437
aF0.048382967028960083
aF0.044592738842724938
aF0.041515633396891453
aF0.039034208925418187
aF0.037052610486079142
aF0.035492408352723596
aF0.032135924957419501
aF0.032860898880330877
aF0.035461616193890474
aa(lp3
F0.99911349107338543
aF0.9993942770239842
aF0.99951645871162487
aF0.99954027195839568
aF0.99956155956351822
aF0.99958042913360978
aF0.99959679742763119
aF0.99961084606296557
aF0.99962260353733901
aF0.99963153206393973
aF0.99963747560387972
aF0.99963992298873316
aF0.9996380977848478
aF0.99963084865410068
aF0.99961650010842229
aF0.99959265011139709
aF0.99955587351154696
aF0.99950135616565372
aF0.9994223608449766
aF0.99930952896612057
aF0.99914994537272284
aF0.99892590107036483
aF0.9986132705778763
aF0.99817570858296756
aF0.99758041837234757
aF0.99675775759251051
aF0.99563388968335353
aF0.99410701613585561
aF0.99204471346031309
aF0.98927651521380644
aF0.98558560026454578
aF0.98070011477202246
aF0.97428482553276952
aF0.96593493703673949
aF0.95517411583778589
aF0.94146016561340984
aF0.92420240517197916
aF0.90279513936813405
aF0.87667065009158696
aF0.84537215465143567
aF0.8086416447518826
aF0.76650996446302189
aF0.71936899633361406
aF0.66800250817918583
aF0.61355658507676791
aF0.55744449360351689
aF0.50120121661702965
aF0.44631636994989127
aF0.39408541149939935
aF0.3455066288585435
aF0.30123683942603807
aF0.2616018937932022
aF0.22664546479456923
aF0.19619716228928877
aF0.16994254579750798
aF0.14748540112511704
aF0.12839641563781323
aF0.11224775888945425
aF0.098635270496049463
aF0.087190873107170094
aF0.077587987454467516
aF0.06954215907822231
aF0.062809610519831985
aF0.057182811090607896
aF0.052486966937953405
aF0.048575155907810273
aF0.045324876733436541
aF0.042633923368994485
aF0.040417219624984686
aF0.038604003320806407
aF0.033842533181451973
aF0.033327959137224972
aF0.034551923367452352
aa(lp4
F0.99923085694663605
aF0.9994371880070434
aF0.99952941472669976
aF0.99954717800446358
aF0.99956254845868275
aF0.99957546133790509
aF0.99958565623989926
aF0.99959272743370864
aF0.99959610035745516
aF0.99959495034766066
aF0.99958811746153597
aF0.99957398660260455
aF0.99955032651238562
aF0.9995140781136207
aF0.99946105428856291
aF0.99938558039010827
aF0.99927998269335327
aF0.99913393859836086
aF0.99893362833443378
aF0.99866064058810011
aF0.99829057196919713
aF0.99779125075276198
aF0.9971205071905872
aF0.99622340809371057
aF0.99502887594148481
aF0.99344562854020924
aF0.99135740853122623
aF0.98861754663399515
aF0.98504302489244144
aF0.98040835601854137
aF0.97443993501434345
aF0.9668118280409066
aF0.95714447898637978
aF0.94500833056310085
aF0.92993483083644835
aF0.91143749406097285
aF0.88904527733332828
aF0.86234914051820355
aF0.83105986897687933
aF0.79507172913660162
aF0.75452080774508057
aF0.70982550924410237
aF0.66169468922109076
aF0.61109420674667259
aF0.55917270907945282
aF0.50715683848555815
aF0.45623580958450949
aF0.40745881531709943
aF0.36166063037084867
aF0.31942574989392436
aF0.28108851416998537
aF0.24676071901276422
aF0.21637545901376348
aF0.1897356340555745
aF0.16656024301924449
aF0.14652314133013686
aF0.1292828518312989
aF0.11450364259722759
aF0.10186885273763234
aF0.091089372960176135
aF0.081905925034608335
aF0.074090372421054082
aF0.067444202963608382
aF0.061796672986583721
aF0.057000885744844083
aF0.05293226534528659
aF0.049484896054789285
aF0.046569078500711743
aF0.044108967318812156
aF0.042040472890638982
aF0.035944662564303231
aF0.034356125847839016
aF0.034485348995643386
aa(lp5
F0.99931223163323413
aF0.99946551183721277
aF0.99952827429999525
aF0.99953760146689541
aF0.99954357667498717
aF0.99954553101573484
aF0.99954255248762724
aF0.99953341349264413
aF0.99951647022591794
aF0.99948953117759676
aF0.99944968583869465
aF0.99939308604615451
aF0.99931464458798269
aF0.99920768553168504
aF0.99906345761530779
aF0.99887053392786362
aF0.9986140477244827
aF0.9982747310699297
aF0.99782771448835239
aF0.99724104105640499
aF0.99647384588486709
aF0.99547414894145236
aF0.99417622473531198
aF0.99249751242103557
aF0.99033508282230376
aF0.9875616995358576
aF0.98402163153088507
aF0.97952646621308259
aF0.97385135694793967
aF0.96673236357863412
aF0.95786581633607337
aF0.94691092995538073
aF0.93349712313681443
aF0.91723779584183052
aF0.89775159775632485
aF0.87469238700687602
aF0.84778681691167068
aF0.81687727395036891
aF0.7819646471128332
aF0.74324418471923204
aF0.70112468474252687
aF0.65622562808124274
aF0.60934617616154962
aF0.56140942061052967
aF0.51338839630740785
aF0.46622821291264094
aF0.42077443598716741
aF0.37772070308062239
aF0.33757985474503016
aF0.30067868579426754
aF0.2671718946878554
aF0.23706858666719277
aF0.210264918108654
aF0.18657663638973743
aF0.1657688523588754
aF0.14758038457177602
aF0.13174217168506461
aF0.11799157674047266
aF0.10607959732740006
aF0.095776969206959744
aF0.086876376966179003
aF0.0791931823447104
aF0.072564149946073311
aF0.066847000877703663
aF0.061917976158200237
aF0.057670099246359817
aF0.054011181206802816
aF0.050862000271942376
aF0.048154577344675265
aF0.045830645108704389
aF0.038445579772214376
aF0.035876845262556786
aF0.035066957703614454
aa(lp6
F0.99936772782244487
aF0.99947229657581593
aF0.99948899363802668
aF0.9994815099654758
aF0.99946711433031843
aF0.99944407690637893
aF0.99941016253792592
aF0.99936248987715504
aF0.99929735297599642
aF0.99920999980097813
aF0.99909433438887019
aF0.99894258271798519
aF0.99874483616113618
aF0.99848850469769279
aF0.99815763774766408
aF0.99773209145563535
aF0.99718651154321525
aF0.9964891100246942
aF0.99560019723427873
aF0.99447044953330355
aF0.99303889006587254
aF0.99123058687582044
aF0.98895407061762919
aF0.98609855165354765
aF0.98253103845686929
aF0.97809355477287341
aF0.97260075702434923
aF0.96583836606281948
aF0.95756310798855582
aF0.94750466697275071
aF0.9353708422068272
aF0.92085664138230738
aF0.90365820715613621
aF0.88349202743371047
aF0.86011939290826189
aF0.83337478879974325
aF0.80319507709874649
aF0.76964775395802154
aF0.73295012936186144
aF0.6934776160813545
aF0.651755682996355
aF0.60843479185580374
aF0.56424928885776071
aF0.51996776242663523
aF0.47633883407474609
aF0.43404275719883151
aF0.39365390635772479
aF0.35561793940879854
aF0.32024412952848585
aF0.28771081833035284
aF0.25808036583137695
aF0.23131985808111516
aF0.20732294002895396
aF0.18593291667602876
aF0.16695980047889236
aF0.15019726458208546
aF0.13543439207344277
aF0.1224644357217135
aF0.11109063209264293
aF0.10113053324047358
aF0.092416174901956846
aF0.084796849505784685
aF0.078137651277430817
aF0.072319005237881082
aF0.067235556610941119
aF0.062794935180054079
aF0.058916454352387827
aF0.055529788207602855
aF0.052573779160123769
aF0.049995305040323436
aF0.041349450613188073
aF0.037853084518200943
aF0.03619055778201332
aa(lp7
F0.99939651735778012
aF0.99943214124930047
aF0.99935344835390305
aF0.99930863004281201
aF0.99924872382373653
aF0.99917005985661067
aF0.99906804845072283
aF0.99893694405999123
aF0.99876959169202473
aF0.99855708063090443
aF0.9982883421469354
aF0.99794965511500033
aF0.99752405700546398
aF0.99699063243287345
aF0.99632367059047933
aF0.99549167174965836
aF0.99445618727035323
aF0.99317048789738072
aF0.99157804380578851
aF0.9896108404993712
aF0.98718754800572728
aF0.98421160021733067
aF0.98056927715331998
aF0.97612791328193615
aF0.97073454552838956
aF0.96421503322200131
aF0.95637433559950846
aF0.94699818403571978
aF0.93585674170228939
aF0.92271076795597806
aF0.90732083894643956
aF0.88945985701502461
aF0.86892882582297004
aF0.84557523212675556
aF0.81931319508436717
aF0.79014278797283399
aF0.75816646714115765
aF0.72359947381383116
aF0.68677181226004125
aF0.64811869356560869
aF0.60816270608888789
aF0.56748423078898769
aF0.52668736289384444
aF0.48636382270045536
aF0.44705968599427293
aF0.40924866692162759
aF0.37331428849205245
aF0.3395416284169695
aF0.30811784500929745
aF0.27913925897509706
aF0.25262509869327721
aF0.22852983491911802
aF0.20675961084166306
aF0.18718621854752385
aF0.16965951041700802
aF0.15401769873175666
aF0.14009530642277113
aF0.12773002299452924
aF0.11676475981716265
aF0.10705300784477204
aF0.098458879053280532
aF0.090858182101975687
aF0.084138494980744091
aF0.078198840822140764
aF0.0729490620982787
aF0.068309054661996285
aF0.064207901470607467
aF0.060583015747508732
aF0.057379259014395244
aF0.054548144484531859
aF0.044660711511251179
aF0.040265210757691322
aF0.037796734829456932
aa(lp8
F0.99938040532279315
aF0.99928399410690882
aF0.99900376177398065
aF0.99888134875415036
aF0.99872833506095926
aF0.99853797724165594
aF0.99830205230233882
aF0.99801054600282046
aF0.99765131232985127
aF0.99720962711664329
aF0.99666768662174676
aF0.99600401672903005
aF0.99519278674276102
aF0.99420302444337094
aF0.99299771580824747
aF0.9915328014919027
aF0.98975606472639133
aF0.98760593032610722
aF0.98501018564408815
aF0.98188475482106141
aF0.97813240025187675
aF0.97364170357839097
aF0.96828628806090788
aF0.96192453444061088
aF0.95440001742710423
aF0.94554288847175139
aF0.93517262523591838
aF0.92310228754697476
aF0.90914471798736285
aF0.89312075677096292
aF0.87486940744869612
aF0.85425999006582443
aF0.83120520645776552
aF0.80567450256593209
aF0.7777061662057585
aF0.74741687078737762
aF0.71500536099525969
aF0.68075323944024213
aF0.64501596349282342
aF0.60820909551054436
aF0.57078867355082352
aF0.53322806110248289
aF0.49599374318054046
aF0.45952264742048154
aF0.424203216533246
aF0.39036128627246747
aF0.35825419521104301
aF0.32806603998683198
aF0.29991234957775742
aF0.27384629991291504
aF0.24986745149924156
aF0.22793189301644176
aF0.20796218477056971
aF0.18985681618339678
aF0.17349874801659371
aF0.15876122706061135
aF0.14551503652948974
aF0.13363161335273085
aF0.12298644705727019
aF0.11346120618542616
aF0.10494508046416033
aF0.097335523477624128
aF0.0905385342317305
aF0.084468563293705765
aF0.079048266674156667
aF0.074208033095857384
aF0.069885466950742062
aF0.066024808114211325
aF0.062576362455534704
aF0.059495902800778572
aF0.04838290588509709
aF0.043103153288068165
aF0.039852066438177229
aa(lp9
F0.99927189075207257
aF0.99890928073328999
aF0.99823749679956275
aF0.99797026300371872
aF0.99764698546817798
aF0.99725666776599464
aF0.99678624234885749
aF0.99622018720642724
aF0.99554010867964526
aF0.99472426405471881
aF0.99374701393141629
aF0.9925782147701353
aF0.99118254193166955
aF0.98951875153906077
aF0.98753887149249753
aF0.98518743151510202
aF0.98240053644499292
aF0.97910510243115612
aF0.97521810725226299
aF0.97064600530911815
aF0.96528439354354778
aF0.95901801077059989
aF0.95172130998753945
aF0.94325961129231783
aF0.93349117061281217
aF0.92227021965861045
aF0.90945120483562569
aF0.89489416600467464
aF0.87847158853010177
aF0.86007614423622281
aF0.83962935222563062
aF0.81709048264492101
aF0.79246530803754889
aF0.76581210365380803
aF0.73724842368072807
aF0.70695148781213435
aF0.67515653241977835
aF0.6421506324284213
aF0.60826259540492378
aF0.5738496117475459
aF0.53928134705220976
aF0.50492552782348621
aF0.47112996598230739
aF0.43821101125602491
aF0.40644282291131567
aF0.37605078687297427
aF0.34720850367829453
aF0.32003810691610191
aF0.2946132927313701
aF0.27096431774102359
aF0.24908416464245448
aF0.2289352559537142
aF0.21045715742632892
aF0.1935698628029375
aF0.17818314554660303
aF0.16419908182945978
aF0.15151647071097377
aF0.14003390823487205
aF0.12965213783397408
aF0.12027573287933641
aF0.11181424785642634
aF0.1041829540021369
aF0.09730317623701433
aF0.091102444613248415
aF0.085514406222880188
aF0.08047861368619795
aF0.075940235197145725
aF0.071849689943642117
aF0.068162269768376138
aF0.064837760572061517
aF0.052517256253981924
aF0.046361524690929877
aF0.04233776749801367
aa(lp10
F0.9989769698506431
aF0.99811239848759703
aF0.99675558364711914
aF0.99624598557896293
aF0.99564350031625071
aF0.99493207225906999
aF0.99409302193348137
aF0.99310466565433397
aF0.99194189514009468
aF0.99057570405846795
aF0.98897274649675537
aF0.98709473426521099
aF0.98489793860281827
aF0.98233262658566844
aF0.97934252500692531
aF0.9758643306298358
aF0.97182730711873799
aF0.96715299400889509
aF0.96175517569756364
aF0.95554002388290937
aF0.94840669955497392
aF0.94024833489520088
aF0.93095360887087453
aF0.92040896227207381
aF0.90850144918338427
aF0.89512256111066879
aF0.88017260905584527
aF0.86356588244978527
aF0.84523631998976656
aF0.82514332669191326
aF0.80327783623888294
aF0.77966734888558997
aF0.75437899225037153
aF0.72752363307632617
aF0.69925451433332697
aF0.66976678664486744
aF0.63929065798478646
aF0.60808567330566177
aF0.57643134409898944
aF0.54461684805141486
aF0.51293026201731251
aF0.48164815767793562
aF0.45102641268772364
aF0.42129263374001807
aF0.39264085375167856
aF0.36522841963638708
aF0.33917506623823451
aF0.31456389136634705
aF0.29144384796792916
aF0.26983369580220234
aF0.24972469111849699
aF0.23108751348346174
aF0.21387500489663838
aF0.19802691937295913
aF0.18347368973740877
aF0.1701397351121556
aF0.15794624020989312
aF0.14681341781136406
aF0.13666227942140358
aF0.12741599149422927
aF0.11900086183528279
aF0.11134698854238902
aF0.10438867676519785
aF0.098064675350482924
aF0.092318223574624866
aF0.087096997829543776
aF0.082352981457908647
aF0.078042264296438513
aF0.074124819183874244
aF0.070564238723784825
aF0.057061034651453839
aF0.050036176198883481
aF0.045242914132443378
aa(lp11
F0.99833952411947857
aF0.99661398718160787
aF0.99417428115718742
aF0.99329794480884825
aF0.9922811261207658
aF0.99110252085134942
aF0.98973791444870252
aF0.98815975424172642
aF0.98633685675069571
aF0.98423403264426779
aF0.98181172534958139
aF0.97902566337293917
aF0.97582654039572192
aF0.97215973052579652
aF0.96796521153868043
aF0.96317715655642
aF0.95772455144644919
aF0.95153100208293384
aF0.94451548095848958
aF0.93659316204128573
aF0.92767652628602304
aF0.91767710680242387
aF0.90650748113542867
aF0.89408383088932064
aF0.88032889309722218
aF0.86517557850819371
aF0.84857042282599993
aF0.83047767384164439
aF0.81088311585444761
aF0.78979764446283218
aF0.76726025645502505
aF0.74334015102397644
aF0.71813765849407785
aF0.69178376972664923
aF0.6644381330350293
aF0.63628550882649748
aF0.6075308117370527
aF0.57839300728622245
aF0.54909824494673087
aF0.51987266979034563
aF0.49093548112273971
aF0.46249246235933034
aF0.43473065669497868
aF0.40781421454206052
aF0.3818816363244486
aF0.35704439862841653
aF0.33338727424884107
aF0.31096767892302896
aF0.28982001528654039
aF0.26995648475074591
aF0.25137043817101135
aF0.234039298326852
aF0.21792759353487015
aF0.20298983243017477
aF0.18917310802598708
aF0.17641941408197456
aF0.16466763779815832
aF0.15385522183184863
aF0.14391953963839724
aF0.13479893273176774
aF0.12643356492993763
aF0.11876598733026084
aF0.111741577169826
aF0.10530879545075147
aF0.099419314066724815
aF0.094028086143313455
aF0.089093297731669754
aF0.084576296205705961
aF0.080441463503322791
aF0.076656067344390053
aF0.062005842789496585
aF0.054121458671180935
aF0.048559941548013554
aa(lp12
F0.99713452321872309
aF0.99406489151564081
aF0.99006461625403397
aF0.98868149674652372
aF0.98710261372342267
aF0.9853021358652968
aF0.98325124733518932
aF0.98091791793140615
aF0.97826663839417205
aF0.97525835972408803
aF0.97185000445680847
aF0.96799474611365111
aF0.96364171360011153
aF0.95873606518028776
aF0.95321918517882209
aF0.94702899328719259
aF0.94010037094575105
aF0.9323659401182437
aF0.92375694018226884
aF0.91420444086951591
aF0.9036408220008918
aF0.89200148854582462
aF0.8792271333675572
aF0.86526573033662513
aF0.85007521848061285
aF0.83362605037264226
aF0.81590377857962992
aF0.79691149192330535
aF0.77667193944989754
aF0.75522916981841393
aF0.73264951804406797
aF0.70902179305973945
aF0.68445655937628946
aF0.65908446266624288
aF0.63305361795893988
aF0.6065261533410069
aF0.57967407292613904
aF0.55267466138198496
aF0.5257056767149606
aF0.49894069059041374
aF0.47254462071550185
aF0.44666997109884882
aF0.42145372573731565
aF0.39701552785724198
aF0.37345452897087428
aF0.35085144542681529
aF0.32926701663006541
aF0.30874326975104233
aF0.28930485675090373
aF0.27096072941766952
aF0.25370615210768421
aF0.23752458073801805
aF0.22238981797657331
aF0.20826787267833571
aF0.19511880723735744
aF0.1828983516499344
aF0.17155935888576854
aF0.16105300150031565
aF0.15132982465695358
aF0.14234058345293665
aF0.13403691438722001
aF0.12637185562039543
aF0.11930022818299418
aF0.11277891784432763
aF0.10676704897640617
aF0.10122608850799825
aF0.096119886543231642
aF0.09141466941244944
aF0.087078990196880132
aF0.083083662382651136
aF0.067336071274358991
aF0.058607924042801338
aF0.0522813320193595
aa(lp13
F0.9950759739024444
aF0.99008172653015303
aF0.98401190260030436
aF0.9819832765193437
aF0.97970104974327432
aF0.9771362837070896
aF0.97425744803038361
aF0.9710302225441001
aF0.96741741234026679
aF0.96337895774853854
aF0.95887196869578462
aF0.95385078083622254
aF0.94826721922512203
aF0.94207085391093948
aF0.93520943386846889
aF0.92762945218610648
aF0.91927687056849372
aF0.91009801121715117
aF0.90004056649572417
aF0.88905508163654801
aF0.87709602989398805
aF0.86412359905897029
aF0.85010530949624363
aF0.83501775217763619
aF0.81884832132963414
aF0.80159686302626165
aF0.78327714838689955
aF0.76391807346037166
aF0.74356448794113139
aF0.72227756304916713
aF0.70013462600151577
aF0.67722841431923753
aF0.65366573639477243
aF0.62956556276196085
aF0.60505661186531823
aF0.58027453076129509
aF0.55535880106079172
aF0.53044950662795809
aF0.50568420247005363
aF0.48119455876934414
aF0.45710553644619523
aF0.43352861353688604
aF0.41056540297940103
aF0.38830329936470959
aF0.36681549214217124
aF0.34616077352972124
aF0.32638379656827088
aF0.3075157125597604
aF0.28957510802556202
aF0.27256913700970065
aF0.25649490253182061
aF0.2413406774655095
aF0.2270874016530865
aF0.21370992956921206
aF0.20117831697580293
aF0.18945898543865713
aF0.17851571732387903
aF0.16831058640725982
aF0.15880473112563764
aF0.14995901149079935
aF0.14173455110600161
aF0.13409317414936567
aF0.12699774971666997
aF0.12041244717046987
aF0.11430293409200919
aF0.10863650014655254
aF0.10338213803015371
aF0.098510581886463361
aF0.093994313819137643
aF0.08980753490885178
aF0.073027895620155589
aF0.063480502713817832
aF0.056397043861437082
aa(lp14
F0.99184121029905226
aF0.98429733122463314
aF0.97568026742634462
aF0.97288763570395087
aF0.96978702516469695
aF0.9663485444456642
aF0.96254018725646273
aF0.95832792454743754
aF0.95367574116230713
aF0.94854577824030872
aF0.94289853187257022
aF0.93669312663462789
aF0.92988767752290324
aF0.92243974523639738
aF0.91430683978823712
aF0.90544730417852481
aF0.89582078476311866
aF0.88538931366084028
aF0.87411825702520596
aF0.86197738516927314
aF0.84894201226085919
aF0.83499416801949189
aF0.82012376385652186
aF0.80432970719330066
aF0.78762091156569458
aF0.77001714630560358
aF0.75154966893580988
aF0.73226158664372321
aF0.71220790077119633
aF0.69145520024759066
aF0.67008098590489573
aF0.64817262674159781
aF0.62582597007021323
aF0.60314364836317846
aF0.58023314461122055
aF0.55720467938218421
aF0.53416953001936618
aF0.51123604392730049
aF0.48851021774716419
aF0.46609210398068501
aF0.44407460271052962
aF0.42254213021722437
aF0.40156961439363398
aF0.38122182709612612
aF0.36155304566897928
aF0.34260702065864695
aF0.32441721498997089
aF0.30700727195211586
aF0.29039166517911025
aF0.27457646149708204
aF0.25956027962045908
aF0.24533508349629107
aF0.23188718149174795
aF0.21919818650199235
aF0.20724578714241262
aF0.19600462786442219
aF0.18544703498971768
aF0.17554368236167667
aF0.16626417727127007
aF0.15757756722836758
aF0.14945277058066886
aF0.14185893571138125
aF0.13476573467359368
aF0.1281435990660805
aF0.12196389682959163
aF0.11619907716490201
aF0.11082276202262516
aF0.10580981155461992
aF0.10113636024343584
aF0.096779830121283439
aF0.079049096109606323
aF0.068717328949755546
aF0.06089258358083887
aa(lp15
F0.9871076644220248
aF0.97641382939435672
aF0.96486596878358921
aF0.96122744207712663
aF0.95723586631708413
aF0.95286248049363409
aF0.94807719492679132
aF0.94284873033180239
aF0.93714480516804355
aF0.93093237539185225
aF0.92417788304478221
aF0.91684782455193314
aF0.90890888622876298
aF0.90032863813543418
aF0.89107605374813803
aF0.88112215369460611
aF0.87044069799234947
aF0.85900893314710236
aF0.84680837311725887
aF0.83382559622309749
aF0.82005303464127755
aF0.80548972911471095
aF0.79014201825427099
aF0.77402412971812495
aF0.75715864002484456
aF0.73957677113194908
aF0.72131849543135895
aF0.70243242656193439
aF0.68297548130648189
aF0.66301230749849605
aF0.64261448376986607
aF0.62185950839942195
aF0.60082960562645271
aF0.57961081305477369
aF0.55828985623575289
aF0.53695518768160433
aF0.51569382517222151
aF0.49459036852627369
aF0.47372568052349334
aF0.45317572248118854
aF0.43301056875432531
aF0.41329362172737943
aF0.39408103826331503
aF0.37542136836689433
aF0.35735539766463487
aF0.33991617768907528
aF0.32312922217381101
aF0.30701284372072773
aF0.29157860322774648
aF0.27683182320259969
aF0.26277225608588051
aF0.24939461519991435
aF0.23668924044647199
aF0.22464277721524914
aF0.21323871963445296
aF0.2024580253507921
aF0.19227964051574178
aF0.18268098760473708
aF0.17363840348166723
aF0.16512752680029805
aF0.15712363546486346
aF0.14960193611518341
aF0.14253780849788819
aF0.13590700818234849
aF0.12968583277591161
aF0.12385124735462665
aF0.11838099402980412
aF0.11325366096516136
aF0.10844873625402883
aF0.10394664110978145
aF0.085359784302461092
aF0.074289364242957165
aF0.06574777538641495
aa(lp16
F0.980594070695746
aF0.96624620238303616
aF0.95152739441365131
aF0.9470080410443763
aF0.94210413747079413
aF0.93678995351326844
aF0.93103938934584873
aF0.9248254428967928
aF0.9181213598961302
aF0.91090105393671039
aF0.90313828307746957
aF0.89480792800013653
aF0.88588618996270174
aF0.87635104599556002
aF0.86618274410489127
aF0.85536432518059724
aF0.84388216299500252
aF0.83172651028274303
aF0.81889203649732112
aF0.80537834073028336
aF0.79119042156303165
aF0.77633908452275957
aF0.76084126751231251
aF0.74472026524316992
aF0.7280058354400003
aF0.71073417245793069
aF0.69294773793092723
aF0.6746949430287591
aF0.65602968262199901
aF0.63701112234480284
aF0.61770140509202864
aF0.59816710825232233
aF0.57847678934479418
aF0.5587003969396539
aF0.53890820702798248
aF0.51916983724652366
aF0.4995532581906808
aF0.48012387557364461
aF0.46094370074459379
aF0.4420706299235132
aF0.42355784704909843
aF0.40545335933161408
aF0.38779966883867545
aF0.37063357806130337
aF0.35398612268636698
aF0.33788262093431554
aF0.32234282591641034
aF0.30738115772807723
aF0.29300704581037346
aF0.27922522710178838
aF0.26603626289050686
aF0.25343683794236815
aF0.2414202791590089
aF0.229976963524477
aF0.21909478413633279
aF0.20875950100218352
aF0.19895516454039786
aF0.18966446281551982
aF0.18086904759010972
aF0.17254982824259929
aF0.16468723325463502
aF0.15726143982868609
aF0.15025257285839566
aF0.14364087496009856
aF0.13740684960689017
aF0.13153138099645528
aF0.12599582453898503
aF0.12078209182530086
aF0.11587270320233389
aF0.11125083243869151
aF0.091913916913189675
aF0.080160836515203129
aF0.070936285900356902
aa(lp17
F0.97209762942770461
aF0.95374727449723762
aF0.93578741380088548
aF0.93040194771036633
aF0.924616139085775
aF0.91840839102211536
aF0.91175790076245899
aF0.90464356519425027
aF0.89704511345325455
aF0.88894316896558112
aF0.88031955928563843
aF0.87115764878372937
aF0.86144269124169948
aF0.85116219732387233
aF0.84030631050362592
aF0.82886818372809912
aF0.81684434778048032
aF0.80423506121579713
aF0.79104463082077958
aF0.77728169101358235
aF0.76295943045615833
aF0.74809575451582599
aF0.73271337313118501
aF0.71683980514085888
aF0.70050729221435282
aF0.68375298118194017
aF0.6666172162476387
aF0.64914528385690018
aF0.63138556536361912
aF0.61338934169141435
aF0.59521018922731384
aF0.57690331701645436
aF0.55852490410250644
aF0.54013135014573133
aF0.52177859971583351
aF0.50352145187811126
aF0.48541291554510962
aF0.46750361880192942
aF0.4498412851278622
aF0.43247028648430125
aF0.41543128004412
aF0.39876093208961505
aF0.38249172948011723
aF0.36665187623651624
aF0.35126527032469035
aF0.33635154548423446
aF0.32192621912608743
aF0.30800081333322049
aF0.2945831038386974
aF0.28167734351345325
aF0.26928461957779865
aF0.25740302997896847
aF0.24602806540058028
aF0.23515288552937261
aF0.22476865769937321
aF0.21486479136532138
aF0.20542925311191632
aF0.19644881805573214
aF0.18790931173718303
aF0.17979583180860778
aF0.17209294885267926
aF0.16478488623974102
aF0.1578556793988066
aF0.15128931524214909
aF0.14506985275734835
aF0.13918152597432462
aF0.13360883206768986
aF0.12833659729320773
aF0.1233500442763283
aF0.1186348321140346
aF0.098661344212655044
aF0.086290375270799552
aF0.076425884057302815
aa(lp18
F0.96151955816488699
aF0.93901086939080081
aF0.9179101184766858
aF0.91171820109513746
aF0.90512598387095211
aF0.89811687994159517
aF0.89067516791900603
aF0.88278597921360602
aF0.87443552601951891
aF0.86561134302453124
aF0.85630254005940132
aF0.84650006215278983
aF0.83619695269751404
aF0.82538861468056268
aF0.81407306426607062
aF0.80225117037997762
aF0.78992687354392876
aF0.77710737688717457
aF0.76380330227259219
aF0.75002880465753596
aF0.73580163835119605
aF0.72114350384979575
aF0.7060786857995196
aF0.69063589144017168
aF0.67484680527280816
aF0.65874617281046832
aF0.6423715107486635
aF0.62576276223803462
aF0.60896190357990854
aF0.59201250343356571
aF0.57495928594411594
aF0.55784760276470979
aF0.54072296696046573
aF0.52363055323403007
aF0.50661471882528608
aF0.48971854845452134
aF0.47298343286135242
aF0.45644868911772368
aF0.44015122927347461
aF0.4241252821178686
aF0.40840217100339488
aF0.39301014886838204
aF0.37797428989239523
aF0.36331642710502543
aF0.34905518403401964
aF0.33520596727630697
aF0.32178108621289042
aF0.30878986561201616
aF0.29623879647282958
aF0.28413169094464946
aF0.27246995240580363
aF0.26125266394866753
aF0.25047687680767733
aF0.2401378054290097
aF0.23022903072793202
aF0.22074274565232119
aF0.21166989923046486
aF0.20300042444604377
aF0.19472340804419472
aF0.18682725703801215
aF0.17929985189837547
aF0.17212868607994986
aF0.1653009918543879
aF0.15880385268304342
aF0.15262430256958881
aF0.1467494129925169
aF0.14116636813399014
aF0.13586253067346679
aF0.13082549002314411
aF0.12604311661197076
aF0.10555003476441144
aF0.092632643690254507
aF0.082179311158410179
aa(lp19
F0.94887551816960691
aF0.92225432768885041
aF0.89826264879078332
aF0.89136008566609592
aF0.8840705525135526
aF0.8763827202873401
aF0.86828621662837768
aF0.85977180184034818
aF0.85083155049368031
aF0.84145903618966222
aF0.8316495165854505
aF0.82140011536956803
aF0.81070999750754613
aF0.799580533757422
aF0.7880154502586012
aF0.77602095882712963
aF0.76360586364642058
aF0.75078194951096022
aF0.73756281060391005
aF0.72396566225783909
aF0.71001013402432167
aF0.69571849499497185
aF0.68111554747214409
aF0.66622847975126942
aF0.65108667908920859
aF0.63572150706104735
aF0.6201660406163686
aF0.60445477625200927
aF0.58862334443949849
aF0.57270813503926776
aF0.55674598156178456
aF0.54077380464303437
aF0.524828264658322
aF0.50894542318982894
aF0.49316041987717207
aF0.47750717059549469
aF0.46201809214175549
aF0.44672385770642364
aF0.43165318640926859
aF0.41683266913087963
aF0.40228662300439233
aF0.38803702758919367
aF0.37410340998001312
aF0.36050285302123558
aF0.34724999268031242
aF0.33435705430237794
aF0.32183391571516595
aF0.30968819362732325
aF0.29792534962176059
aF0.28654879283537377
aF0.27556009040404716
aF0.26495899655454586
aF0.25474367650174251
aF0.24491083886124129
aF0.23545588686614272
aF0.22637305803095839
aF0.21765560650986493
aF0.20929588658277742
aF0.20128552225453855
aF0.19361552274453483
aF0.18627639878493182
aF0.17925827008445344
aF0.17255096376316162
aF0.16614410374467534
aF0.16002719124278311
aF0.15418967660128602
aF0.14862102284149079
aF0.14331076134370391
aF0.1382485416607391
aF0.13342416672787694
aF0.11252821467566032
aF0.099140161013853201
aF0.088155577836358398
aa(lp20
F0.93428970369033115
aF0.90378859834567005
aF0.87727008710145049
aF0.86977528018030048
aF0.86191779010253378
aF0.85369086835940045
aF0.84508886324405574
aF0.83610735149362558
aF0.82674326879156634
aF0.81699503694107534
aF0.80686268532244132
aF0.79634796408864472
aF0.78545471807754774
aF0.7741879060431337
aF0.76255525196536666
aF0.75056626241604496
aF0.73823251385111088
aF0.72556766156933494
aF0.71258742359903171
aF0.69930953826561271
aF0.68575369467242597
aF0.67194143594196443
aF0.65789603568562083
aF0.64364234882408089
aF0.62920663853189485
aF0.61461637480687603
aF0.59990004925842366
aF0.58508690496832549
aF0.57020672554875385
aF0.55528958182786647
aF0.54036558301890814
aF0.52546462962753304
aF0.51061617237986057
aF0.4958489812336101
aF0.48119092819971926
aF0.46666878726807326
aF0.45230805421808595
aF0.43813278852514453
aF0.42416546993813781
aF0.41042692485010007
aF0.39693618772666117
aF0.38371047732369518
aF0.37076515228756868
aF0.35811369878248117
aF0.34576773966067409
aF0.33373706333271219
aF0.32202967026575458
aF0.31065183488569442
aF0.29960818057991179
aF0.28890176548459678
aF0.27853415753340804
aF0.2685056117193087
aF0.25881506069727916
aF0.24946029794598026
aF0.24043806700138601
aF0.2317441595922197
aF0.22337355746093754
aF0.21532047980878646
aF0.20757851764836133
aF0.2001407180705822
aF0.19299967226125522
aF0.18614759785013915
aF0.17957641535281901
aF0.17327781858830202
aF0.16724333906069144
aF0.16146440438213705
aF0.15593239088738278
aF0.15063867064882042
aF0.14557465314631987
aF0.14073182344986604
aF0.1195462197137681
aF0.10576513029581169
aF0.094311495801736284
aa(lp21
F0.9179777345981297
aF0.88398178276489392
aF0.8553713608080058
aF0.84741393575808888
aF0.83912543895871616
aF0.83050296569099558
aF0.82154471260642625
aF0.81225006678603862
aF0.80261994644405243
aF0.79265586905072549
aF0.78236151283466127
aF0.77174179757303341
aF0.76080317445201162
aF0.74955366176098737
aF0.73800286609886179
aF0.72616198782214247
aF0.71404380962886416
aF0.70166266749486761
aF0.68903440346127198
aF0.67617630009828156
aF0.66310699688184671
aF0.64984638905575842
aF0.63641550996502538
aF0.62283639136961133
aF0.60913194470878052
aF0.59532576167668794
aF0.58144197529282815
aF0.56750507932019945
aF0.55353975075212003
aF0.5395706710690048
aF0.52562234901610527
aF0.51171894758890624
aF0.49788411777954333
aF0.48414084144104003
aF0.47051128537461634
aF0.45701665933628144
aF0.44367713402037767
aF0.43051168395256978
aF0.41753803729728511
aF0.40477259733611454
aF0.39223038982419811
aF0.37992502696088587
aF0.36786868742311923
aF0.35607211165480462
aF0.34454461139103548
aF0.33329409222456408
aF0.32232708789397768
aF0.31164880488751684
aF0.3012631759110283
aF0.29117292075977724
aF0.28137959424519077
aF0.27188373290121837
aF0.26268481731280197
aF0.25378142338518694
aF0.24517128149871359
aF0.23685135413711936
aF0.22881790346596187
aF0.22106660265717695
aF0.2135925542281488
aF0.20639039591247635
aF0.19945435817280599
aF0.19277832709457307
aF0.18635590344355993
aF0.18018045773990246
aF0.17424518127345637
aF0.16854313304822749
aF0.16306728269713511
aF0.15781054945317996
aF0.1527658372997055
aF0.14792606645153297
aF0.1265579326718024
aF0.11246105650285312
aF0.10060320626418226
aa(lp22
F0.9002201113607432
aF0.86322193853939633
aF0.83298550505842039
aF0.82469551338855884
aF0.81611013341988625
aF0.80722971695507351
aF0.79805487052114343
aF0.78858801855976146
aF0.77883245902002407
aF0.76879264844344097
aF0.75847423441668615
aF0.74788407891462361
aF0.73703027162348111
aF0.72592213244287263
aF0.7145702025027354
aF0.70298622318104431
aF0.69118310282642526
aF0.67917487103541074
aF0.66697662060856711
aF0.6546044375108232
aF0.64207531937599316
aF0.62940707659168715
aF0.61661825777820933
aF0.60372799833745683
aF0.59075593075534782
aF0.57772205476138239
aF0.56464661052721654
aF0.55154994966765847
aF0.53845240579651321
aF0.52537416638567458
aF0.51233514763152344
aF0.49935487394995715
aF0.48645235447283047
aF0.47364601256664474
aF0.46095353319147403
aF0.44839181048177379
aF0.43597686060577773
aF0.42372375462052209
aF0.4116465626675837
aF0.39975830964679321
aF0.38807094230529077
aF0.37659530749440878
aF0.36534114118069178
aF0.35431706765266741
aF0.34353060824361964
aF0.33298819879348823
aF0.32269521500024223
aF0.31265600476198002
aF0.30287392658429901
aF0.29335139312135533
aF0.28408990032887438
aF0.27509015261001241
aF0.26635200579593415
aF0.25787459572848392
aF0.24965637618469724
aF0.2416951753176311
aF0.23398825176806601
aF0.2265323408701137
aF0.21932374468101618
aF0.21235833025399342
aF0.20563161572210339
aF0.19913880930727626
aF0.19287485479258668
aF0.18683447437889084
aF0.18101220883168828
aF0.175402454867535
aF0.16999949976745324
aF0.16479755323772027
aF0.15979077656636062
aF0.15497330914694124
aF0.13352177963387585
aF0.11918407399520536
aF0.10698760282442775
aa(lp23
F0.86165142844231279
aF0.82032566243330529
aF0.78819531358295414
aF0.77959498730290822
aF0.77077252841828192
aF0.76173164748171607
aF0.7524767899322492
aF0.74301314523913264
aF0.73334665106715824
aF0.72348399215501125
aF0.7134325936526954
aF0.70320060872662482
aF0.69279690031074148
aF0.68223101695786326
aF0.67151316282607121
aF0.66065416192042947
aF0.64966541678375311
aF0.63855885533359935
aF0.62734690603433829
aF0.61604240188099313
aF0.60465854752167292
aF0.59320884939099972
aF0.58170704990545374
aF0.57016705966776748
aF0.55860288837462979
aF0.5470285751678966
aF0.53545811010927868
aF0.52390540169906441
aF0.51238415603337095
aF0.50090784792444809
aF0.48948965025668795
aF0.47814237573798063
aF0.46687842265135543
aF0.45570972504584512
aF0.44464770772988099
aF0.43370324635169127
aF0.42288663277102961
aF0.41220754584684194
aF0.40167502768789687
aF0.3912974653394361
aF0.38108257780985932
aF0.37103740827844811
aF0.36116832126897758
aF0.3514810045254087
aF0.34198047528504399
aF0.3326710906117426
aF0.32355656142694578
aF0.31463996985914938
aF0.30592378952264432
aF0.29740990833335179
aF0.28909963541165457
aF0.28099379975366973
aF0.27309267092170181
aF0.26539605953643186
aF0.257903329436179
aF0.25061342799789188
aF0.24352491659287828
aF0.23663600092218154
aF0.22994456100315147
aF0.22344817168003331
aF0.21714416694538485
aF0.21102961449756194
aF0.20510137799446493
aF0.19935613395295759
aF0.19379039629447972
aF0.18840053964626485
aF0.18318282135601141
aF0.17813340219441823
aF0.17324836573479552
aF0.16852373641203713
aF0.14716541820509721
aF0.13255457303206603
aF0.11987262380982612
aa(lp24
F0.82112891792442599
aF0.77767180575719275
aF0.74518881596898301
aF0.73665459867950078
aF0.72796330377990059
aF0.71911990022974115
aF0.71012981575246359
aF0.70099892868576741
aF0.69173355693490657
aF0.68234044401815896
aF0.67282674222542493
aF0.6631999929436545
aF0.6534680976662347
aF0.64363931934581675
aF0.63372221509632864
aF0.62372563301578865
aF0.61365867361335236
aF0.60353065607675904
aF0.5933510829830354
aF0.58312960370134304
aF0.57287596789333561
aF0.56260002278486221
aF0.55231162149574053
aF0.54202061959406767
aF0.53173682797762511
aF0.52146997511384696
aF0.51122967018997056
aF0.50102536746270099
aF0.49086633207963076
aF0.48076160762278219
aF0.47071998559979833
aF0.46074997708107263
aF0.45085978665197851
aF0.44105728881895012
aF0.43135000697703074
aF0.42174509501520918
aF0.41224932160494998
aF0.40286905718728333
aF0.39361026364511892
aF0.38447848662046424
aF0.3754788504113199
aF0.36661605536045044
aF0.35789437762820125
aF0.34931767122418628
aF0.34088937215810111
aF0.33261250455811342
aF0.32448968859623573
aF0.31652315005370402
aF0.30871473135552158
aF0.30106590390186139
aF0.29357776391802187
aF0.28625111702197392
aF0.27908638861387225
aF0.27208370930776438
aF0.2652429139251482
aF0.25856355815373305
aF0.25204493541108614
aF0.24568609378893616
aF0.23948585296403904
aF0.23344282097189414
aF0.22755541075004856
aF0.22182184755920664
aF0.21624021998459397
aF0.21080844271631435
aF0.2055243064353996
aF0.20038548343344009
aF0.19538954137652029
aF0.19053395645872528
aF0.18581612592455996
aF0.18123337994632818
aF0.16024913874172297
aF0.14560708141405457
aF0.13267502357804292
aa(lp25
F0.74223329328268273
aF0.69948035647499329
aF0.66921055932014417
aF0.66145439351288993
aF0.6536307731872687
aF0.64574397207349477
aF0.63779839450746656
aF0.62979857478733547
aF0.62174915347766657
aF0.6136548751513331
aF0.60552057491415889
aF0.59735116660453269
aF0.58915162519413011
aF0.58092699618129118
aF0.5726823499656839
aF0.5644227910536459
aF0.55615343957129704
aF0.54787941829444975
aF0.53960583972685061
aF0.53133779328572872
aF0.52308033268804777
aF0.51483846356882934
aF0.50661713142072429
aF0.49842120990445182
aF0.49025548958833254
aF0.48212466716814018
aF0.47403333522248553
aF0.46598597252867219
aF0.45798693500177906
aF0.45004044727129305
aF0.44215059493036646
aF0.43432131747854918
aF0.42655640197465788
aF0.41885947741104035
aF0.4112340098151932
aF0.40368329807956488
aF0.39621047051544128
aF0.38881848212214398
aF0.38151011255838402
aF0.37428796479855142
aF0.36715446445300365
aF0.36011185972806659
aF0.35316222199848785
aF0.34630744696250354
aF0.33954925634748423
aF0.3328892001323196
aF0.32632865925128468
aF0.31986884874307003
aF0.31351082130796337
aF0.30725547123580987
aF0.30110353866733058
aF0.29505547840870555
aF0.2891121261322695
aF0.28327341510157561
aF0.27753963548033755
aF0.27191082968478864
aF0.26638691651812163
aF0.26096769676915815
aF0.25565285887333655
aF0.25044198460835593
aF0.2453345547985582
aF0.24032995500392682
aF0.23542748117139328
aF0.23062634522797756
aF0.22592568059709434
aF0.22132453902043181
aF0.21682193021317897
aF0.21241677563826314
aF0.20810794777746153
aF0.20389426650824824
aF0.18420865868361092
aF0.17003781673974364
aF0.15716945076614292
aa.